target datalayout = "e-m:e-p270:32:32-p271:32:32-p272:64:64-i64:64-i128:128-f80:128-n8:16:32:64-S128"
target triple = "x86_64-pc-linux-gnu"

%struct.s_p_hashtbl = type { %struct.re_pattern_buffer, [173 x ptr] }
%struct.re_pattern_buffer = type { ptr, i64, i64, i64, ptr, ptr, i64, i8 }
%struct.s_p_values = type { ptr, i32, i32, i32, ptr, ptr, ptr, ptr }
%struct._expline_values_st = type { ptr, ptr, ptr }

; Function Attrs: nounwind uwtable
define internal i32 @_conf_hashtbl_index(ptr noundef %0) #0 {
  %2 = alloca ptr, align 8
  %3 = alloca i32, align 4
  %4 = alloca i32, align 4
  %5 = alloca i32, align 4
  store ptr %0, ptr %2, align 8
  call void @llvm.lifetime.start.p0(i64 4, ptr %3) #9
  store i32 0, ptr %3, align 4
  br label %6

6:                                                ; preds = %25, %1
  %7 = load ptr, ptr %2, align 8
  %8 = load i8, ptr %7, align 1
  %9 = sext i8 %8 to i32
  %10 = icmp ne i32 %9, 0
  br i1 %10, label %11, label %28

11:                                               ; preds = %6
  call void @llvm.lifetime.start.p0(i64 4, ptr %4) #9
  %12 = call ptr @__ctype_tolower_loc() #10
  %13 = load ptr, ptr %12, align 8
  %14 = load ptr, ptr %2, align 8
  %15 = load i8, ptr %14, align 1
  %16 = sext i8 %15 to i32
  %17 = sext i32 %16 to i64
  %18 = getelementptr inbounds i32, ptr %13, i64 %17
  %19 = load i32, ptr %18, align 4
  store i32 %19, ptr %4, align 4
  %20 = load i32, ptr %4, align 4
  store i32 %20, ptr %5, align 4
  call void @llvm.lifetime.end.p0(i64 4, ptr %4) #9
  %21 = load i32, ptr %5, align 4
  %22 = load i32, ptr %3, align 4
  %23 = mul i32 31, %22
  %24 = add i32 %21, %23
  store i32 %24, ptr %3, align 4
  br label %25

25:                                               ; preds = %11
  %26 = load ptr, ptr %2, align 8
  %27 = getelementptr inbounds nuw i8, ptr %26, i32 1
  store ptr %27, ptr %2, align 8
  br label %6, !llvm.loop !56

28:                                               ; preds = %6
  %29 = load i32, ptr %3, align 4
  %30 = urem i32 %29, 173
  call void @llvm.lifetime.end.p0(i64 4, ptr %3) #9
  ret i32 %30
}

; Function Attrs: nounwind uwtable
define internal void @_conf_hashtbl_insert(ptr noundef %0, ptr noundef %1) #0 {
  %3 = alloca ptr, align 8
  %4 = alloca ptr, align 8
  %5 = alloca i32, align 4
  store ptr %0, ptr %3, align 8
  store ptr %1, ptr %4, align 8
  call void @llvm.lifetime.start.p0(i64 4, ptr %5) #9
  %6 = load ptr, ptr %4, align 8
  %7 = getelementptr inbounds nuw %struct.s_p_values, ptr %6, i32 0, i32 0
  %8 = load ptr, ptr %7, align 8
  %9 = call i32 @_conf_hashtbl_index(ptr noundef %8)
  store i32 %9, ptr %5, align 4
  %10 = load ptr, ptr %3, align 8
  %11 = getelementptr inbounds nuw %struct.s_p_hashtbl, ptr %10, i32 0, i32 1
  %12 = load i32, ptr %5, align 4
  %13 = sext i32 %12 to i64
  %14 = getelementptr inbounds [173 x ptr], ptr %11, i64 0, i64 %13
  %15 = load ptr, ptr %14, align 8
  %16 = load ptr, ptr %4, align 8
  %17 = getelementptr inbounds nuw %struct.s_p_values, ptr %16, i32 0, i32 7
  store ptr %15, ptr %17, align 8
  %18 = load ptr, ptr %4, align 8
  %19 = load ptr, ptr %3, align 8
  %20 = getelementptr inbounds nuw %struct.s_p_hashtbl, ptr %19, i32 0, i32 1
  %21 = load i32, ptr %5, align 4
  %22 = sext i32 %21 to i64
  %23 = getelementptr inbounds [173 x ptr], ptr %20, i64 0, i64 %22
  store ptr %18, ptr %23, align 8
  call void @llvm.lifetime.end.p0(i64 4, ptr %5) #9
  ret void
}

; Function Attrs: nounwind uwtable
define internal ptr @_conf_hashtbl_lookup(ptr noundef %0, ptr noundef %1) #0 {
  %3 = alloca ptr, align 8
  %4 = alloca ptr, align 8
  %5 = alloca ptr, align 8
  %6 = alloca i32, align 4
  %7 = alloca ptr, align 8
  %8 = alloca i32, align 4
  store ptr %0, ptr %4, align 8
  store ptr %1, ptr %5, align 8
  call void @llvm.lifetime.start.p0(i64 4, ptr %6) #9
  call void @llvm.lifetime.start.p0(i64 8, ptr %7) #9
  %9 = load ptr, ptr %4, align 8
  %10 = icmp ne ptr %9, null
  br i1 %10, label %12, label %11

11:                                               ; preds = %2
  store ptr null, ptr %3, align 8
  store i32 1, ptr %8, align 4
  br label %39

12:                                               ; preds = %2
  %13 = load ptr, ptr %5, align 8
  %14 = call i32 @_conf_hashtbl_index(ptr noundef %13)
  store i32 %14, ptr %6, align 4
  %15 = load ptr, ptr %4, align 8
  %16 = getelementptr inbounds nuw %struct.s_p_hashtbl, ptr %15, i32 0, i32 1
  %17 = load i32, ptr %6, align 4
  %18 = sext i32 %17 to i64
  %19 = getelementptr inbounds [173 x ptr], ptr %16, i64 0, i64 %18
  %20 = load ptr, ptr %19, align 8
  store ptr %20, ptr %7, align 8
  br label %21

21:                                               ; preds = %34, %12
  %22 = load ptr, ptr %7, align 8
  %23 = icmp ne ptr %22, null
  br i1 %23, label %24, label %38

24:                                               ; preds = %21
  %25 = load ptr, ptr %7, align 8
  %26 = getelementptr inbounds nuw %struct.s_p_values, ptr %25, i32 0, i32 0
  %27 = load ptr, ptr %26, align 8
  %28 = load ptr, ptr %5, align 8
  %29 = call i32 @xstrcasecmp(ptr noundef %27, ptr noundef %28)
  %30 = icmp eq i32 %29, 0
  br i1 %30, label %31, label %33

31:                                               ; preds = %24
  %32 = load ptr, ptr %7, align 8
  store ptr %32, ptr %3, align 8
  store i32 1, ptr %8, align 4
  br label %39

33:                                               ; preds = %24
  br label %34

34:                                               ; preds = %33
  %35 = load ptr, ptr %7, align 8
  %36 = getelementptr inbounds nuw %struct.s_p_values, ptr %35, i32 0, i32 7
  %37 = load ptr, ptr %36, align 8
  store ptr %37, ptr %7, align 8
  br label %21, !llvm.loop !27

38:                                               ; preds = %21
  store ptr null, ptr %3, align 8
  store i32 1, ptr %8, align 4
  br label %39

39:                                               ; preds = %38, %31, %11
  call void @llvm.lifetime.end.p0(i64 8, ptr %7) #9
  call void @llvm.lifetime.end.p0(i64 4, ptr %6) #9
  %40 = load ptr, ptr %3, align 8
  ret ptr %40
}

; Function Attrs: nounwind uwtable
define dso_local void @s_p_hashtbl_merge_keys(ptr noundef %0, ptr noundef %1) #0 {
  %3 = alloca ptr, align 8
  %4 = alloca ptr, align 8
  %5 = alloca i32, align 4
  %6 = alloca ptr, align 8
  %7 = alloca ptr, align 8
  %8 = alloca ptr, align 8
  %9 = alloca ptr, align 8
  %10 = alloca ptr, align 8
  %11 = alloca i32, align 4
  store ptr %0, ptr %3, align 8
  store ptr %1, ptr %4, align 8
  call void @llvm.lifetime.start.p0(i64 4, ptr %5) #9
  call void @llvm.lifetime.start.p0(i64 8, ptr %6) #9
  call void @llvm.lifetime.start.p0(i64 8, ptr %7) #9
  call void @llvm.lifetime.start.p0(i64 8, ptr %8) #9
  call void @llvm.lifetime.start.p0(i64 8, ptr %9) #9
  call void @llvm.lifetime.start.p0(i64 8, ptr %10) #9
  %12 = load ptr, ptr %3, align 8
  %13 = icmp ne ptr %12, null
  br i1 %13, label %14, label %17

14:                                               ; preds = %2
  %15 = load ptr, ptr %4, align 8
  %16 = icmp ne ptr %15, null
  br i1 %16, label %18, label %17

17:                                               ; preds = %14, %2
  store i32 1, ptr %11, align 4
  br label %105

18:                                               ; preds = %14
  store i32 0, ptr %5, align 4
  br label %19

19:                                               ; preds = %101, %18
  %20 = load i32, ptr %5, align 4
  %21 = icmp slt i32 %20, 173
  br i1 %21, label %22, label %104

22:                                               ; preds = %19
  %23 = load ptr, ptr %4, align 8
  %24 = getelementptr inbounds nuw %struct.s_p_hashtbl, ptr %23, i32 0, i32 1
  %25 = load i32, ptr %5, align 4
  %26 = sext i32 %25 to i64
  %27 = getelementptr inbounds [173 x ptr], ptr %24, i64 0, i64 %26
  store ptr %27, ptr %8, align 8
  %28 = load ptr, ptr %4, align 8
  %29 = getelementptr inbounds nuw %struct.s_p_hashtbl, ptr %28, i32 0, i32 1
  %30 = load i32, ptr %5, align 4
  %31 = sext i32 %30 to i64
  %32 = getelementptr inbounds [173 x ptr], ptr %29, i64 0, i64 %31
  %33 = load ptr, ptr %32, align 8
  store ptr %33, ptr %9, align 8
  br label %34

34:                                               ; preds = %99, %22
  %35 = load ptr, ptr %9, align 8
  %36 = icmp ne ptr %35, null
  br i1 %36, label %37, label %100

37:                                               ; preds = %34
  %38 = load ptr, ptr %3, align 8
  %39 = load ptr, ptr %9, align 8
  %40 = getelementptr inbounds nuw %struct.s_p_values, ptr %39, i32 0, i32 0
  %41 = load ptr, ptr %40, align 8
  %42 = call ptr @_conf_hashtbl_lookup(ptr noundef %38, ptr noundef %41)
  store ptr %42, ptr %10, align 8
  %43 = load ptr, ptr %10, align 8
  %44 = icmp ne ptr %43, null
  br i1 %44, label %45, label %88

45:                                               ; preds = %37
  %46 = load ptr, ptr %10, align 8
  %47 = getelementptr inbounds nuw %struct.s_p_values, ptr %46, i32 0, i32 1
  %48 = load i32, ptr %47, align 8
  %49 = load ptr, ptr %9, align 8
  %50 = getelementptr inbounds nuw %struct.s_p_values, ptr %49, i32 0, i32 1
  %51 = load i32, ptr %50, align 8
  %52 = icmp eq i32 %48, %51
  br i1 %52, label %53, label %82

53:                                               ; preds = %45
  %54 = load ptr, ptr %9, align 8
  %55 = getelementptr inbounds nuw %struct.s_p_values, ptr %54, i32 0, i32 1
  %56 = load i32, ptr %55, align 8
  %57 = icmp eq i32 %56, 9
  br i1 %57, label %63, label %58

58:                                               ; preds = %53
  %59 = load ptr, ptr %9, align 8
  %60 = getelementptr inbounds nuw %struct.s_p_values, ptr %59, i32 0, i32 1
  %61 = load i32, ptr %60, align 8
  %62 = icmp eq i32 %61, 10
  br i1 %62, label %63, label %82

63:                                               ; preds = %58, %53
  %64 = load ptr, ptr %10, align 8
  %65 = getelementptr inbounds nuw %struct.s_p_values, ptr %64, i32 0, i32 4
  %66 = load ptr, ptr %65, align 8
  store ptr %66, ptr %7, align 8
  %67 = load ptr, ptr %9, align 8
  %68 = getelementptr inbounds nuw %struct.s_p_values, ptr %67, i32 0, i32 4
  %69 = load ptr, ptr %68, align 8
  store ptr %69, ptr %6, align 8
  %70 = load ptr, ptr %7, align 8
  %71 = getelementptr inbounds nuw %struct._expline_values_st, ptr %70, i32 0, i32 0
  %72 = load ptr, ptr %71, align 8
  %73 = load ptr, ptr %6, align 8
  %74 = getelementptr inbounds nuw %struct._expline_values_st, ptr %73, i32 0, i32 0
  %75 = load ptr, ptr %74, align 8
  call void @s_p_hashtbl_merge_keys(ptr noundef %72, ptr noundef %75)
  %76 = load ptr, ptr %6, align 8
  %77 = getelementptr inbounds nuw %struct._expline_values_st, ptr %76, i32 0, i32 0
  %78 = load ptr, ptr %77, align 8
  call void @s_p_hashtbl_destroy(ptr noundef %78)
  %79 = load ptr, ptr %6, align 8
  %80 = getelementptr inbounds nuw %struct._expline_values_st, ptr %79, i32 0, i32 1
  %81 = load ptr, ptr %80, align 8
  call void @s_p_hashtbl_destroy(ptr noundef %81)
  call void @slurm_xfree(ptr noundef %6)
  br label %82

82:                                               ; preds = %63, %58, %45
  %83 = load ptr, ptr %9, align 8
  %84 = getelementptr inbounds nuw %struct.s_p_values, ptr %83, i32 0, i32 7
  store ptr %84, ptr %8, align 8
  %85 = load ptr, ptr %9, align 8
  %86 = getelementptr inbounds nuw %struct.s_p_values, ptr %85, i32 0, i32 7
  %87 = load ptr, ptr %86, align 8
  store ptr %87, ptr %9, align 8
  br label %99

88:                                               ; preds = %37
  %89 = load ptr, ptr %9, align 8
  %90 = getelementptr inbounds nuw %struct.s_p_values, ptr %89, i32 0, i32 7
  %91 = load ptr, ptr %90, align 8
  %92 = load ptr, ptr %8, align 8
  store ptr %91, ptr %92, align 8
  %93 = load ptr, ptr %9, align 8
  %94 = getelementptr inbounds nuw %struct.s_p_values, ptr %93, i32 0, i32 7
  store ptr null, ptr %94, align 8
  %95 = load ptr, ptr %3, align 8
  %96 = load ptr, ptr %9, align 8
  call void @_conf_hashtbl_insert(ptr noundef %95, ptr noundef %96)
  %97 = load ptr, ptr %8, align 8
  %98 = load ptr, ptr %97, align 8
  store ptr %98, ptr %9, align 8
  br label %99

99:                                               ; preds = %88, %82
  br label %34, !llvm.loop !35

100:                                              ; preds = %34
  br label %101

101:                                              ; preds = %100
  %102 = load i32, ptr %5, align 4
  %103 = add nsw i32 %102, 1
  store i32 %103, ptr %5, align 4
  br label %19, !llvm.loop !36

104:                                              ; preds = %19
  store i32 0, ptr %11, align 4
  br label %105

105:                                              ; preds = %104, %17
  call void @llvm.lifetime.end.p0(i64 8, ptr %10) #9
  call void @llvm.lifetime.end.p0(i64 8, ptr %9) #9
  call void @llvm.lifetime.end.p0(i64 8, ptr %8) #9
  call void @llvm.lifetime.end.p0(i64 8, ptr %7) #9
  call void @llvm.lifetime.end.p0(i64 8, ptr %6) #9
  call void @llvm.lifetime.end.p0(i64 4, ptr %5) #9
  %106 = load i32, ptr %11, align 4
  switch i32 %106, label %108 [
    i32 0, label %107
    i32 1, label %107
  ]

107:                                              ; preds = %105, %105
  ret void

108:                                              ; preds = %105
  unreachable
}