; Function Attrs: nounwind uwtable
define dso_local void @s_p_hashtbl_merge_keys(ptr noundef captures(address_is_null) %0, ptr noundef captures(address_is_null) %1) local_unnamed_addr #0 {
  %3 = alloca ptr, align 8
  call void @llvm.lifetime.start.p0(i64 8, ptr nonnull %3) #13
  %4 = icmp ne ptr %0, null
  %5 = icmp ne ptr %1, null
  %or.cond = and i1 %4, %5
  br i1 %or.cond, label %.preheader, label %.loopexit46

.preheader:                                       ; preds = %2
  %6 = getelementptr inbounds nuw i8, ptr %1, i64 64
  %7 = getelementptr inbounds nuw i8, ptr %0, i64 64
  br label %8

8:                                                ; preds = %.preheader, %._crit_edge
  %indvars.iv = phi i64 [ 0, %.preheader ], [ %indvars.iv.next, %._crit_edge ]
  %9 = getelementptr inbounds nuw [173 x ptr], ptr %6, i64 0, i64 %indvars.iv
  %.02749 = load ptr, ptr %9, align 8
  %.not50 = icmp eq ptr %.02749, null
  br i1 %.not50, label %._crit_edge, label %.lr.ph

.lr.ph:                                           ; preds = %8, %69
  %.02752 = phi ptr [ %.027, %69 ], [ %.02749, %8 ]
  %.02851 = phi ptr [ %.129, %69 ], [ %9, %8 ]
  %10 = load ptr, ptr %.02752, align 8
  %11 = load i8, ptr %10, align 1
  %.not8.i.i = icmp eq i8 %11, 0
  br i1 %.not8.i.i, label %_conf_hashtbl_index.exit.i, label %.lr.ph.i.i

.lr.ph.i.i:                                       ; preds = %.lr.ph
  %12 = tail call ptr @__ctype_tolower_loc() #15
  %13 = load ptr, ptr %12, align 8
  br label %14

14:                                               ; preds = %14, %.lr.ph.i.i
  %15 = phi i8 [ %11, %.lr.ph.i.i ], [ %22, %14 ]
  %.010.i.i = phi ptr [ %10, %.lr.ph.i.i ], [ %21, %14 ]
  %.069.i.i = phi i32 [ 0, %.lr.ph.i.i ], [ %20, %14 ]
  %16 = sext i8 %15 to i64
  %17 = getelementptr inbounds i32, ptr %13, i64 %16
  %18 = load i32, ptr %17, align 4
  %19 = mul i32 %.069.i.i, 31
  %20 = add i32 %18, %19
  %21 = getelementptr inbounds nuw i8, ptr %.010.i.i, i64 1
  %22 = load i8, ptr %21, align 1
  %.not.i.i = icmp eq i8 %22, 0
  br i1 %.not.i.i, label %._crit_edge.loopexit.i.i, label %14, !llvm.loop !28

._crit_edge.loopexit.i.i:                         ; preds = %14
  %23 = urem i32 %20, 173
  %24 = zext nneg i32 %23 to i64
  br label %_conf_hashtbl_index.exit.i

_conf_hashtbl_index.exit.i:                       ; preds = %._crit_edge.loopexit.i.i, %.lr.ph
  %.06.lcssa.i.i = phi i64 [ 0, %.lr.ph ], [ %24, %._crit_edge.loopexit.i.i ]
  %25 = getelementptr inbounds nuw [173 x ptr], ptr %7, i64 0, i64 %.06.lcssa.i.i
  %.012.i = load ptr, ptr %25, align 8
  %.not1113.i = icmp eq ptr %.012.i, null
  br i1 %.not1113.i, label %.loopexit, label %.lr.ph.i

.lr.ph.i:                                         ; preds = %_conf_hashtbl_index.exit.i, %29
  %.014.i = phi ptr [ %.0.i, %29 ], [ %.012.i, %_conf_hashtbl_index.exit.i ]
  %26 = load ptr, ptr %.014.i, align 8
  %27 = call i32 @xstrcasecmp(ptr noundef %26, ptr noundef nonnull %10) #13
  %28 = icmp eq i32 %27, 0
  br i1 %28, label %_conf_hashtbl_lookup.exit, label %29

29:                                               ; preds = %.lr.ph.i
  %30 = getelementptr inbounds nuw i8, ptr %.014.i, i64 48
  %.0.i = load ptr, ptr %30, align 8
  %.not11.i = icmp eq ptr %.0.i, null
  br i1 %.not11.i, label %.loopexit, label %.lr.ph.i, !llvm.loop !29

_conf_hashtbl_lookup.exit:                        ; preds = %.lr.ph.i
  %31 = getelementptr inbounds nuw i8, ptr %.014.i, i64 8
  %32 = load i32, ptr %31, align 8
  %33 = getelementptr inbounds nuw i8, ptr %.02752, i64 8
  %34 = load i32, ptr %33, align 8
  %35 = icmp eq i32 %32, %34
  %.off = add i32 %34, -9
  %switch = icmp ult i32 %.off, 2
  %or.cond35 = and i1 %35, %switch
  br i1 %or.cond35, label %36, label %48

36:                                               ; preds = %_conf_hashtbl_lookup.exit
  %37 = getelementptr inbounds nuw i8, ptr %.014.i, i64 24
  %38 = load ptr, ptr %37, align 8
  %39 = getelementptr inbounds nuw i8, ptr %.02752, i64 24
  %40 = load ptr, ptr %39, align 8
  store ptr %40, ptr %3, align 8
  %41 = load ptr, ptr %38, align 8
  %42 = load ptr, ptr %40, align 8
  call void @s_p_hashtbl_merge_keys(ptr noundef %41, ptr noundef %42)
  %43 = load ptr, ptr %3, align 8
  %44 = load ptr, ptr %43, align 8
  call void @s_p_hashtbl_destroy(ptr noundef %44)
  %45 = load ptr, ptr %3, align 8
  %46 = getelementptr inbounds nuw i8, ptr %45, i64 8
  %47 = load ptr, ptr %46, align 8
  call void @s_p_hashtbl_destroy(ptr noundef %47)
  call void @slurm_xfree(ptr noundef nonnull %3) #13
  br label %48

48:                                               ; preds = %36, %_conf_hashtbl_lookup.exit
  %49 = getelementptr inbounds nuw i8, ptr %.02752, i64 48
  br label %69

.loopexit:                                        ; preds = %29, %_conf_hashtbl_index.exit.i
  %50 = getelementptr inbounds nuw i8, ptr %.02752, i64 48
  %51 = load ptr, ptr %50, align 8
  store ptr %51, ptr %.02851, align 8
  store ptr null, ptr %50, align 8
  %52 = load ptr, ptr %.02752, align 8
  %53 = load i8, ptr %52, align 1
  %.not8.i.i36 = icmp eq i8 %53, 0
  br i1 %.not8.i.i36, label %_conf_hashtbl_insert.exit, label %.lr.ph.i.i37

.lr.ph.i.i37:                                     ; preds = %.loopexit
  %54 = tail call ptr @__ctype_tolower_loc() #15
  %55 = load ptr, ptr %54, align 8
  br label %56

56:                                               ; preds = %56, %.lr.ph.i.i37
  %57 = phi i8 [ %53, %.lr.ph.i.i37 ], [ %64, %56 ]
  %.010.i.i38 = phi ptr [ %52, %.lr.ph.i.i37 ], [ %63, %56 ]
  %.069.i.i39 = phi i32 [ 0, %.lr.ph.i.i37 ], [ %62, %56 ]
  %58 = sext i8 %57 to i64
  %59 = getelementptr inbounds i32, ptr %55, i64 %58
  %60 = load i32, ptr %59, align 4
  %61 = mul i32 %.069.i.i39, 31
  %62 = add i32 %60, %61
  %63 = getelementptr inbounds nuw i8, ptr %.010.i.i38, i64 1
  %64 = load i8, ptr %63, align 1
  %.not.i.i40 = icmp eq i8 %64, 0
  br i1 %.not.i.i40, label %._crit_edge.loopexit.i.i41, label %56, !llvm.loop !28

._crit_edge.loopexit.i.i41:                       ; preds = %56
  %65 = urem i32 %62, 173
  %66 = zext nneg i32 %65 to i64
  br label %_conf_hashtbl_insert.exit

_conf_hashtbl_insert.exit:                        ; preds = %.loopexit, %._crit_edge.loopexit.i.i41
  %.06.lcssa.i.i43 = phi i64 [ 0, %.loopexit ], [ %66, %._crit_edge.loopexit.i.i41 ]
  %67 = getelementptr inbounds nuw [173 x ptr], ptr %7, i64 0, i64 %.06.lcssa.i.i43
  %68 = load ptr, ptr %67, align 8
  store ptr %68, ptr %50, align 8
  store ptr %.02752, ptr %67, align 8
  br label %69

69:                                               ; preds = %_conf_hashtbl_insert.exit, %48
  %.129 = phi ptr [ %49, %48 ], [ %.02851, %_conf_hashtbl_insert.exit ]
  %.027 = load ptr, ptr %.129, align 8
  %.not = icmp eq ptr %.027, null
  br i1 %.not, label %._crit_edge, label %.lr.ph, !llvm.loop !43

._crit_edge:                                      ; preds = %69, %8
  %indvars.iv.next = add nuw nsw i64 %indvars.iv, 1
  %exitcond.not = icmp eq i64 %indvars.iv.next, 173
  br i1 %exitcond.not, label %.loopexit46, label %8, !llvm.loop !44

.loopexit46:                                      ; preds = %._crit_edge, %2
  call void @llvm.lifetime.end.p0(i64 8, ptr nonnull %3) #13
  ret void
}